; Function Attrs: mustprogress uwtable
define dso_local void @_ZN9SResourceC2EP7SRBRootPKcaPK7UStringR10UErrorCode(ptr noundef nonnull align 8 dereferenceable(56) initializes((0, 10), (12, 40)) %0, ptr noundef %1, ptr noundef readonly %2, i8 noundef signext %3, ptr noundef %4, ptr noundef nonnull align 4 dereferenceable(4) %5) unnamed_addr #7 align 2 {
  store ptr getelementptr inbounds nuw inrange(-16, 64) (i8, ptr @_ZTV9SResource, i64 16), ptr %0, align 8, !tbaa !9
  %7 = getelementptr inbounds nuw i8, ptr %0, i64 8
  store i8 %3, ptr %7, align 8, !tbaa !11
  %8 = getelementptr inbounds nuw i8, ptr %0, i64 9
  store i8 0, ptr %8, align 1, !tbaa !17
  %9 = getelementptr inbounds nuw i8, ptr %0, i64 12
  store i32 -1, ptr %9, align 4, !tbaa !20
  %10 = getelementptr inbounds nuw i8, ptr %0, i64 16
  store i32 -1, ptr %10, align 8, !tbaa !21
  %11 = getelementptr inbounds nuw i8, ptr %0, i64 20
  %.not = icmp eq ptr %1, null
  br i1 %.not, label %_ZN7SRBRoot6addTagEPKcR10UErrorCode.exit, label %12

12:                                               ; preds = %6
  %13 = load i32, ptr %5, align 4, !tbaa !22
  %14 = icmp sgt i32 %13, 0
  %15 = icmp eq ptr %2, null
  %or.cond.i = or i1 %15, %14
  br i1 %or.cond.i, label %_ZN7SRBRoot6addTagEPKcR10UErrorCode.exit, label %16

16:                                               ; preds = %12
  %17 = tail call i64 @strlen(ptr noundef nonnull readonly dereferenceable(1) %2) #32
  %18 = trunc i64 %17 to i32
  %19 = add i32 %18, 1
  %20 = icmp slt i32 %19, 0
  br i1 %20, label %21, label %22

21:                                               ; preds = %16
  store i32 1, ptr %5, align 4, !tbaa !22
  br label %_ZN7SRBRoot6addTagEPKcR10UErrorCode.exit

22:                                               ; preds = %16
  %23 = icmp eq i32 %19, 0
  %24 = getelementptr inbounds nuw i8, ptr %1, i64 52
  %25 = load i32, ptr %24, align 4, !tbaa !24
  br i1 %23, label %_ZN7SRBRoot11addKeyBytesEPKciR10UErrorCode.exit.thread11.i, label %26

26:                                               ; preds = %22
  %27 = add nsw i32 %25, %19
  store i32 %27, ptr %24, align 4, !tbaa !24
  %28 = getelementptr inbounds nuw i8, ptr %1, i64 56
  %29 = load i32, ptr %28, align 8, !tbaa !33
  %.not16.i.i = icmp slt i32 %27, %29
  br i1 %.not16.i.i, label %._crit_edge.i.i, label %30

._crit_edge.i.i:                                  ; preds = %26
  %.phi.trans.insert.i.i = getelementptr inbounds nuw i8, ptr %1, i64 32
  %.pre.i.i = load ptr, ptr %.phi.trans.insert.i.i, align 8, !tbaa !34
  br label %_ZN7SRBRoot11addKeyBytesEPKciR10UErrorCode.exit.i

30:                                               ; preds = %26
  %31 = add nsw i32 %29, 65536
  store i32 %31, ptr %28, align 8, !tbaa !33
  %32 = getelementptr inbounds nuw i8, ptr %1, i64 32
  %33 = load ptr, ptr %32, align 8, !tbaa !34
  %34 = sext i32 %31 to i64
  %35 = tail call ptr @uprv_realloc_77(ptr noundef %33, i64 noundef %34) #33
  store ptr %35, ptr %32, align 8, !tbaa !34
  %36 = icmp eq ptr %35, null
  br i1 %36, label %37, label %_ZN7SRBRoot11addKeyBytesEPKciR10UErrorCode.exit.i

37:                                               ; preds = %30
  store i32 7, ptr %5, align 4, !tbaa !22
  br label %_ZN7SRBRoot6addTagEPKcR10UErrorCode.exit

_ZN7SRBRoot11addKeyBytesEPKciR10UErrorCode.exit.i: ; preds = %30, %._crit_edge.i.i
  %38 = phi ptr [ %.pre.i.i, %._crit_edge.i.i ], [ %35, %30 ]
  %39 = sext i32 %25 to i64
  %40 = getelementptr inbounds i8, ptr %38, i64 %39
  %41 = zext nneg i32 %19 to i64
  tail call void @llvm.memcpy.p0.p0.i64(ptr align 1 %40, ptr nonnull readonly align 1 %2, i64 %41, i1 false)
  %.pre.i = load i32, ptr %5, align 4, !tbaa !22
  %42 = icmp sgt i32 %.pre.i, 0
  br i1 %42, label %_ZN7SRBRoot6addTagEPKcR10UErrorCode.exit, label %_ZN7SRBRoot11addKeyBytesEPKciR10UErrorCode.exit.thread11.i

_ZN7SRBRoot11addKeyBytesEPKciR10UErrorCode.exit.thread11.i: ; preds = %_ZN7SRBRoot11addKeyBytesEPKciR10UErrorCode.exit.i, %22
  %43 = getelementptr inbounds nuw i8, ptr %1, i64 60
  %44 = load i32, ptr %43, align 4, !tbaa !35
  %45 = add nsw i32 %44, 1
  store i32 %45, ptr %43, align 4, !tbaa !35
  br label %_ZN7SRBRoot6addTagEPKcR10UErrorCode.exit

_ZN7SRBRoot6addTagEPKcR10UErrorCode.exit:         ; preds = %_ZN7SRBRoot11addKeyBytesEPKciR10UErrorCode.exit.thread11.i, %_ZN7SRBRoot11addKeyBytesEPKciR10UErrorCode.exit.i, %37, %21, %12, %6
  %46 = phi i32 [ -1, %6 ], [ -1, %12 ], [ %25, %_ZN7SRBRoot11addKeyBytesEPKciR10UErrorCode.exit.thread11.i ], [ %25, %_ZN7SRBRoot11addKeyBytesEPKciR10UErrorCode.exit.i ], [ -1, %21 ], [ -1, %37 ]
  store i32 %46, ptr %11, align 4, !tbaa !36
  %47 = getelementptr inbounds nuw i8, ptr %0, i64 24
  store i32 -1, ptr %47, align 8, !tbaa !37
  %48 = getelementptr inbounds nuw i8, ptr %0, i64 28
  store i32 0, ptr %48, align 4, !tbaa !18
  %49 = getelementptr inbounds nuw i8, ptr %0, i64 32
  store ptr null, ptr %49, align 8, !tbaa !19
  %50 = getelementptr inbounds nuw i8, ptr %0, i64 40
  tail call void @ustr_init(ptr noundef nonnull %50)
  %.not9 = icmp eq ptr %4, null
  br i1 %.not9, label %52, label %51

51:                                               ; preds = %_ZN7SRBRoot6addTagEPKcR10UErrorCode.exit
  tail call void @ustr_cpy(ptr noundef nonnull %50, ptr noundef nonnull %4, ptr noundef nonnull %5)
  br label %52

52:                                               ; preds = %51, %_ZN7SRBRoot6addTagEPKcR10UErrorCode.exit
  ret void
}